; Function Attrs: nounwind uwtable
define zeroext range(i8 0, 3) i8 @l___private_Lean_Compiler_IR_LiveVars_0__Lean_IR_LiveVars_accumulate___lambda__1(ptr noundef %0, ptr noundef %1) local_unnamed_addr #0 {
  %3 = ptrtoint ptr %0 to i64
  %4 = and i64 %3, 1
  %.not = icmp eq i64 %4, 0
  br i1 %.not, label %lean_nat_lt.exit.thread12, label %5, !prof !16

5:                                                ; preds = %2
  %6 = ptrtoint ptr %1 to i64
  %7 = and i64 %6, 1
  %.not14 = icmp eq i64 %7, 0
  br i1 %.not14, label %lean_nat_lt.exit, label %lean_nat_lt.exit.thread, !prof !16

lean_nat_lt.exit:                                 ; preds = %5
  %8 = tail call zeroext i1 @lean_nat_big_lt(ptr noundef %0, ptr noundef %1) #4
  br i1 %8, label %12, label %.critedge.i

lean_nat_lt.exit.thread12:                        ; preds = %2
  %9 = tail call zeroext i1 @lean_nat_big_lt(ptr noundef %0, ptr noundef %1) #4
  br i1 %9, label %12, label %.critedge.i

lean_nat_lt.exit.thread:                          ; preds = %5
  %.not15 = icmp ult ptr %0, %1
  br i1 %.not15, label %12, label %.thread

.thread:                                          ; preds = %lean_nat_lt.exit.thread
  %10 = icmp eq ptr %0, %1
  br label %lean_nat_eq.exit

.critedge.i:                                      ; preds = %lean_nat_lt.exit, %lean_nat_lt.exit.thread12
  %11 = tail call zeroext i1 @lean_nat_big_eq(ptr noundef %0, ptr noundef %1) #4
  br label %lean_nat_eq.exit

lean_nat_eq.exit:                                 ; preds = %.thread, %.critedge.i
  %.0.i = phi i1 [ %10, %.thread ], [ %11, %.critedge.i ]
  %. = select i1 %.0.i, i8 1, i8 2
  br label %12

12:                                               ; preds = %lean_nat_lt.exit.thread12, %lean_nat_lt.exit.thread, %lean_nat_lt.exit, %lean_nat_eq.exit
  %.1 = phi i8 [ %., %lean_nat_eq.exit ], [ 0, %lean_nat_lt.exit ], [ 0, %lean_nat_lt.exit.thread ], [ 0, %lean_nat_lt.exit.thread12 ]
  ret i8 %.1
}